Certificate:
    Data:
        Version: 3 (0x2)
        Serial Number: 1 (0x1)
        Signature Algorithm: md5WithRSAEncryption
        Issuer: C=TW, ST=HsinChu, L=SciencePark, O=Realtek, CN=linux223-CA
        Validity
            Not Before: Jul 19 07:08:52 2004 GMT
            Not After : Jul 19 07:08:52 2005 GMT
        Subject: C=TW, ST=HsinChu, L=SciencePark, O=Realtek, CN=linux223-server
        Subject Public Key Info:
            Public Key Algorithm: rsaEncryption
            RSA Public Key: (1024 bit)
                Modulus (1024 bit):
                    00:c9:7b:d4:b4:d0:e4:b5:74:6b:68:96:cc:3a:83:
                    8d:f6:03:be:f6:0e:2a:65:b4:6d:f2:63:db:a3:e7:
                    77:d7:cf:b0:04:94:8d:0f:21:02:ca:b7:e9:cb:9f:
                    25:38:7c:8f:42:66:84:d8:a1:44:e1:8b:7a:b8:a2:
                    5f:ee:36:25:ef:b3:ef:fd:e4:46:b9:12:56:e5:eb:
                    89:2c:c0:38:5e:a7:fa:57:7f:0d:4f:0c:fe:d0:fa:
                    3b:f9:12:86:42:5d:3d:74:d6:20:3c:50:00:ee:53:
                    42:9d:de:f4:97:ce:46:62:3c:f0:26:1e:80:0f:bd:
                    8c:e4:d2:b0:85:52:12:db:1d
                Exponent: 65537 (0x10001)
        X509v3 extensions:
            X509v3 Extended Key Usage: 
            TLS Web Server Authentication
    Signature Algorithm: md5WithRSAEncryption
        47:8c:dc:42:6e:17:04:65:41:17:e2:0a:9d:e8:d3:51:d2:0c:
        ad:11:22:df:b9:03:01:9e:17:8c:28:b8:49:57:64:e5:ba:b9:
        c6:6d:01:e7:65:46:a4:5e:09:eb:4a:3c:81:14:74:4e:2f:51:
        29:9b:c9:44:be:42:09:f4:18:b3:4a:83:74:e3:d4:48:88:d2:
        e0:c7:51:cb:06:59:53:24:e5:78:e7:0d:7f:6d:aa:ba:5a:43:
        34:0b:f6:3b:87:98:ee:ec:63:66:c8:0a:87:81:2f:d4:e0:f8:
        3c:9c:bc:6e:d7:0d:68:b7:0f:70:79:53:08:2f:ee:34:18:43:
        a6:b8
-----BEGIN CERTIFICATE-----
MIICSzCCAbSgAwIBAgIBATANBgkqhkiG9w0BAQQFADBdMQswCQYDVQQGEwJUVzEQ
MA4GA1UECBMHSHNpbkNodTEUMBIGA1UEBxMLU2NpZW5jZVBhcmsxEDAOBgNVBAoT
B1JlYWx0ZWsxFDASBgNVBAMTC2xpbnV4MjIzLUNBMB4XDTA0MDcxOTA3MDg1MloX
DTA1MDcxOTA3MDg1MlowYTELMAkGA1UEBhMCVFcxEDAOBgNVBAgTB0hzaW5DaHUx
FDASBgNVBAcTC1NjaWVuY2VQYXJrMRAwDgYDVQQKEwdSZWFsdGVrMRgwFgYDVQQD
Ew9saW51eDIyMy1zZXJ2ZXIwgZ8wDQYJKoZIhvcNAQEBBQADgY0AMIGJAoGBAMl7
1LTQ5LV0a2iWzDqDjfYDvvYOKmW0bfJj26Pnd9fPsASUjQ8hAsq36cufJTh8j0Jm
hNihROGLeriiX+42Je+z7/3kRrkSVuXriSzAOF6n+ld/DU8M/tD6O/kShkJdPXTW
IDxQAO5TQp3e9JfORmI88CYegA+9jOTSsIVSEtsdAgMBAAGjFzAVMBMGA1UdJQQM
MAoGCCsGAQUFBwMBMA0GCSqGSIb3DQEBBAUAA4GBAEeM3EJuFwRlQRfiCp3o01HS
DK0RIt+5AwGeF4wouElXZOW6ucZtAedlRqReCetKPIEUdE4vUSmbyUS+Qgn0GLNK
g3Tj1EiI0uDHUcsGWVMk5XjnDX9tqrpaQzQL9juHmO7sY2bICoeBL9Tg+DycvG7X
DWi3D3B5Uwgv7jQYQ6a4
-----END CERTIFICATE-----
