Certificate:
    Data:
        Version: 3 (0x2)
        Serial Number: 2 (0x2)
        Signature Algorithm: md5WithRSAEncryption
        Issuer: C=TW, ST=HsinChu, L=SciencePark, O=Realtek, CN=linux223-CA
        Validity
            Not Before: Jul 19 07:10:23 2004 GMT
            Not After : Jul 19 07:10:23 2005 GMT
        Subject: C=TW, ST=HsinChu, L=SciencePark, O=Realtek, CN=kenny
        Subject Public Key Info:
            Public Key Algorithm: rsaEncryption
            RSA Public Key: (1024 bit)
                Modulus (1024 bit):
                    00:a3:ba:95:70:45:9b:d2:be:4f:2b:5a:78:15:a0:
                    f8:a3:3d:42:94:3f:4c:48:a6:c0:93:f8:c9:6f:c9:
                    e0:2d:a7:14:fe:75:4e:bf:d0:a8:ce:77:a4:cb:fa:
                    d4:b1:9e:f3:c1:05:46:7e:20:1f:26:bf:a6:12:b2:
                    0d:be:80:47:b5:32:d1:8c:42:e0:aa:df:b3:08:1a:
                    e7:c3:6e:cb:f7:de:16:9f:13:45:f7:d3:ee:19:2c:
                    05:9d:76:d5:e7:fb:55:c4:70:33:17:cc:9f:06:4e:
                    7f:40:b6:26:e5:dc:fc:82:ae:b7:0f:33:71:13:7c:
                    2e:8b:93:aa:b6:1c:ce:4b:df
                Exponent: 65537 (0x10001)
        X509v3 extensions:
            X509v3 Extended Key Usage: 
            TLS Web Client Authentication
    Signature Algorithm: md5WithRSAEncryption
        58:51:1b:04:ae:52:60:d4:34:9a:a1:12:a7:2f:23:3f:53:f1:
        e8:8e:39:04:f6:92:02:f8:6e:d8:ef:32:51:a8:c9:dc:37:28:
        65:6b:32:a0:31:87:4c:88:b2:ff:c5:e9:31:37:e4:9c:c8:dd:
        3a:5e:fc:ab:23:81:a2:6b:38:3e:5a:d7:47:42:d6:44:63:39:
        2f:82:40:64:ee:1a:77:06:2f:bc:f7:1d:92:5b:4b:85:a3:cf:
        c1:0e:71:88:b6:d7:b4:2d:2e:61:cf:6c:6b:c8:48:b4:f1:3c:
        a7:db:6a:c8:8d:c8:b9:40:74:7c:1e:26:0e:4c:17:17:2f:da:
        04:ef
-----BEGIN CERTIFICATE-----
MIICQTCCAaqgAwIBAgIBAjANBgkqhkiG9w0BAQQFADBdMQswCQYDVQQGEwJUVzEQ
MA4GA1UECBMHSHNpbkNodTEUMBIGA1UEBxMLU2NpZW5jZVBhcmsxEDAOBgNVBAoT
B1JlYWx0ZWsxFDASBgNVBAMTC2xpbnV4MjIzLUNBMB4XDTA0MDcxOTA3MTAyM1oX
DTA1MDcxOTA3MTAyM1owVzELMAkGA1UEBhMCVFcxEDAOBgNVBAgTB0hzaW5DaHUx
FDASBgNVBAcTC1NjaWVuY2VQYXJrMRAwDgYDVQQKEwdSZWFsdGVrMQ4wDAYDVQQD
EwVrZW5ueTCBnzANBgkqhkiG9w0BAQEFAAOBjQAwgYkCgYEAo7qVcEWb0r5PK1p4
FaD4oz1ClD9MSKbAk/jJb8ngLacU/nVOv9Cozneky/rUsZ7zwQVGfiAfJr+mErIN
voBHtTLRjELgqt+zCBrnw27L994WnxNF99PuGSwFnXbV5/tVxHAzF8yfBk5/QLYm
5dz8gq63DzNxE3wui5OqthzOS98CAwEAAaMXMBUwEwYDVR0lBAwwCgYIKwYBBQUH
AwIwDQYJKoZIhvcNAQEEBQADgYEAWFEbBK5SYNQ0mqESpy8jP1Px6I45BPaSAvhu
2O8yUajJ3DcoZWsyoDGHTIiy/8XpMTfknMjdOl78qyOBoms4PlrXR0LWRGM5L4JA
ZO4adwYvvPcdkltLhaPPwQ5xiLbXtC0uYc9sa8hItPE8p9tqyI3IuUB0fB4mDkwX
Fy/aBO8=
-----END CERTIFICATE-----
